; Listing generated by Microsoft (R) Optimizing Compiler Version 19.38.33135.0 

include listing.inc

INCLUDELIB MSVCRTD
INCLUDELIB OLDNAMES

msvcjmc	SEGMENT
__6628E330_concurrencysal@h DB 01H
__DD735C24_sal@h DB 01H
__95D07812_vadefs@h DB 01H
__2C966F75_vcruntime@h DB 01H
__C84B2A68_xkeycheck@h DB 01H
__E4981F91_yvals_core@h DB 01H
__53AB384B_limits@h DB 01H
__8AA920FA_climits DB 01H
__1B0272D9_corecrt@h DB 01H
__50BF2FAA_vcruntime_new@h DB 01H
__973DD6D2_vcruntime_new_debug@h DB 01H
__935DC21B_crtdbg@h DB 01H
__EA84BEDA_crtdefs@h DB 01H
__7A2C09FE_use_ansi@h DB 01H
__B806B4B7_yvals@h DB 01H
__BB16330F_corecrt_math@h DB 01H
__3BF2A406_math@h DB 01H
__45DED006_corecrt_malloc@h DB 01H
__13F5961F_stddef@h DB 01H
__FD6DBD68_corecrt_search@h DB 01H
__E2E33A61_corecrt_wstdlib@h DB 01H
__6E5ACABA_stdlib@h DB 01H
__0E460208_cstdlib DB 01H
__81223BB7_xtr1common DB 01H
__2FEC17FD_intrin0@inl@h DB 01H
__F3A907D1_intrin0@h DB 01H
__BFC95293_cmath DB 01H
__44420885_corecrt_stdio_config@h DB 01H
__AB601D8D_corecrt_wstdio@h DB 01H
__C1EC35D3_stdio@h DB 01H
__099E6B1A_cstdio DB 01H
__61CC25A1_errno@h DB 01H
__21B98AC3_vcruntime_string@h DB 01H
__E4C945B4_corecrt_memcpy_s@h DB 01H
__8EAFF484_corecrt_memory@h DB 01H
__6490AEC5_corecrt_wstring@h DB 01H
__E8295E1E_string@h DB 01H
__42D4AAE8_cstring DB 01H
__EF1F6BBA_corecrt_wconio@h DB 01H
__74484FB3_corecrt_wctype@h DB 01H
__3D1D430C_corecrt_wdirect@h DB 01H
__8ECB7138_corecrt_share@h DB 01H
__DB7FEBA6_corecrt_wio@h DB 01H
__9A9F0068_corecrt_wprocess@h DB 01H
__369A9BC3_corecrt_wtime@h DB 01H
__CE789B9D_types@h DB 01H
__9901C817_stat@h DB 01H
__3FCAD62E_wchar@h DB 01H
__9315BD49_cwchar DB 01H
__D0D5387F_iosfwd DB 01H
__AB8DD8A5_cstddef DB 01H
__7CEE9503_initializer_list DB 01H
__EDDD1674_stdint@h DB 01H
__B318E375_cstdint DB 01H
__86E2ECA3_type_traits DB 01H
__394B8783_utility DB 01H
__6CD66C6A___msvc_iter_core@hpp DB 01H
__81056E89_xutility DB 01H
__90A9D9C9_iterator DB 01H
__F7972D0B_share@h DB 01H
__C9486F03___msvc_system_error_abi@hpp DB 01H
__94BF1FE1_cerrno DB 01H
__FA77ED4C_malloc@h DB 01H
__89766DA4_corecrt_terminate@h DB 01H
__597317E9_eh@h DB 01H
__9FD3D380_vcruntime_exception@h DB 01H
__22DBD04C_exception DB 01H
__FFDAFD70___msvc_sanitizer_annotate_container@hpp DB 01H
__B9985323_float@h DB 01H
__7ADAA09D_cfloat DB 01H
__1C3CEDF9_limits DB 01H
__6B6686E8_new DB 01H
__28D75C9A_xatomic@h DB 01H
__53DEE440_xmemory DB 01H
__270D62DC_xstring DB 01H
__AB95EA11_stdexcept DB 01H
__A700C1C1_xcall_once@h DB 01H
__1093A1B8_xerrc@h DB 01H
__0A9237D2_time@h DB 01H
__797ACE9B_ctime DB 01H
__37C18DC8_xtimec@h DB 01H
__1B623E4D_xthreads@h DB 01H
__7709B13B_atomic DB 01H
__185DD3E1_system_error DB 01H
__78388AF5_vcruntime_typeinfo@h DB 01H
__F1DA9D90_typeinfo DB 01H
__A092E177_memory DB 01H
__8CD7B678_xfacet DB 01H
__8B91FF0A___msvc_xlocinfo_types@hpp DB 01H
__1EC467ED_ctype@h DB 01H
__06558CBD_cctype DB 01H
__791C33B7_locale@h DB 01H
__9DEADED9_clocale DB 01H
__EE537E58_xlocinfo DB 01H
__F83316ED_xlocale DB 01H
__D7B6094B_xiosbase DB 01H
__A93552AD_streambuf DB 01H
__66B470FA_xlocnum DB 01H
__93ABBCFE_ios DB 01H
__EB23CC29_ostream DB 01H
__88F3F913_istream DB 01H
__E37C1496_iostream DB 01H
__815921BD_stdafx@h DB 01H
__E713FB8F_lab_findPoryad@cpp DB 01H
msvcjmc	ENDS
PUBLIC	?__empty_global_delete@@YAXPEAX@Z		; __empty_global_delete
PUBLIC	?__empty_global_delete@@YAXPEAX_K@Z		; __empty_global_delete
PUBLIC	?findPoryad@@YAHHH@Z				; findPoryad
PUBLIC	__JustMyCode_Default
EXTRN	_RTC_CheckStackVars:PROC
EXTRN	_RTC_InitBase:PROC
EXTRN	_RTC_Shutdown:PROC
EXTRN	__CheckForDebuggerJustMyCode:PROC
;	COMDAT pdata
pdata	SEGMENT
$pdata$?__empty_global_delete@@YAXPEAX@Z DD imagerel $LN3
	DD	imagerel $LN3+41
	DD	imagerel $unwind$?__empty_global_delete@@YAXPEAX@Z
pdata	ENDS
;	COMDAT pdata
pdata	SEGMENT
$pdata$?__empty_global_delete@@YAXPEAX_K@Z DD imagerel $LN3
	DD	imagerel $LN3+46
	DD	imagerel $unwind$?__empty_global_delete@@YAXPEAX_K@Z
pdata	ENDS
;	COMDAT pdata
pdata	SEGMENT
$pdata$?findPoryad@@YAHHH@Z DD imagerel $LN6
	DD	imagerel $LN6+263
	DD	imagerel $unwind$?findPoryad@@YAHHH@Z
pdata	ENDS
;	COMDAT rtc$TMZ
rtc$TMZ	SEGMENT
_RTC_Shutdown.rtc$TMZ DQ FLAT:_RTC_Shutdown
rtc$TMZ	ENDS
;	COMDAT rtc$IMZ
rtc$IMZ	SEGMENT
_RTC_InitBase.rtc$IMZ DQ FLAT:_RTC_InitBase
rtc$IMZ	ENDS
;	COMDAT xdata
xdata	SEGMENT
$unwind$?findPoryad@@YAHHH@Z DD 025052e01H
	DD	01112316H
	DD	0700a0033H
	DD	05009H
xdata	ENDS
;	COMDAT CONST
CONST	SEGMENT
?findPoryad@@YAHHH@Z$rtcName$0 DB 073H			; findPoryad
	DB	070H
	DB	069H
	DB	073H
	DB	06fH
	DB	06bH
	DB	00H
	ORG $+9
?findPoryad@@YAHHH@Z$rtcVarDesc DD 028H			; findPoryad
	DD	030H
	DQ	FLAT:?findPoryad@@YAHHH@Z$rtcName$0
	ORG $+48
?findPoryad@@YAHHH@Z$rtcFrameData DD 01H		; findPoryad
	DD	00H
	DQ	FLAT:?findPoryad@@YAHHH@Z$rtcVarDesc
CONST	ENDS
;	COMDAT xdata
xdata	SEGMENT
$unwind$?__empty_global_delete@@YAXPEAX_K@Z DD 025051801H
	DD	01132318H
	DD	0700c001dH
	DD	0500bH
xdata	ENDS
;	COMDAT xdata
xdata	SEGMENT
$unwind$?__empty_global_delete@@YAXPEAX@Z DD 025051301H
	DD	010e2313H
	DD	07007001dH
	DD	05006H
xdata	ENDS
; Function compile flags: /Odt
;	COMDAT __JustMyCode_Default
_TEXT	SEGMENT
__JustMyCode_Default PROC				; COMDAT
  00000	c2 00 00	 ret	 0
__JustMyCode_Default ENDP
_TEXT	ENDS
; Function compile flags: /Odtp /RTCsu /ZI
; File E:\уник\КПО\lab01\раздельно\lab\lab\lab_findPoryad.cpp
;	COMDAT ?findPoryad@@YAHHH@Z
_TEXT	SEGMENT
spisok$ = 8
serial$ = 84
sum$ = 116
i$4 = 148
day$ = 400
month$ = 408
?findPoryad@@YAHHH@Z PROC				; findPoryad, COMDAT

; 3    : {

$LN6:
  00000	89 54 24 10	 mov	 DWORD PTR [rsp+16], edx
  00004	89 4c 24 08	 mov	 DWORD PTR [rsp+8], ecx
  00008	55		 push	 rbp
  00009	57		 push	 rdi
  0000a	48 81 ec 98 01
	00 00		 sub	 rsp, 408		; 00000198H
  00011	48 8d 6c 24 20	 lea	 rbp, QWORD PTR [rsp+32]
  00016	48 8d 7c 24 20	 lea	 rdi, QWORD PTR [rsp+32]
  0001b	b9 2e 00 00 00	 mov	 ecx, 46			; 0000002eH
  00020	b8 cc cc cc cc	 mov	 eax, -858993460		; ccccccccH
  00025	f3 ab		 rep stosd
  00027	8b 8c 24 b8 01
	00 00		 mov	 ecx, DWORD PTR [rsp+440]
  0002e	48 8d 0d 00 00
	00 00		 lea	 rcx, OFFSET FLAT:__E713FB8F_lab_findPoryad@cpp
  00035	e8 00 00 00 00	 call	 __CheckForDebuggerJustMyCode

; 4    : 	int spisok[12] = { 31, 28, 31, 30, 31, 30, 31, 31, 30, 31, 30, 31 };

  0003a	c7 45 08 1f 00
	00 00		 mov	 DWORD PTR spisok$[rbp], 31
  00041	c7 45 0c 1c 00
	00 00		 mov	 DWORD PTR spisok$[rbp+4], 28
  00048	c7 45 10 1f 00
	00 00		 mov	 DWORD PTR spisok$[rbp+8], 31
  0004f	c7 45 14 1e 00
	00 00		 mov	 DWORD PTR spisok$[rbp+12], 30
  00056	c7 45 18 1f 00
	00 00		 mov	 DWORD PTR spisok$[rbp+16], 31
  0005d	c7 45 1c 1e 00
	00 00		 mov	 DWORD PTR spisok$[rbp+20], 30
  00064	c7 45 20 1f 00
	00 00		 mov	 DWORD PTR spisok$[rbp+24], 31
  0006b	c7 45 24 1f 00
	00 00		 mov	 DWORD PTR spisok$[rbp+28], 31
  00072	c7 45 28 1e 00
	00 00		 mov	 DWORD PTR spisok$[rbp+32], 30
  00079	c7 45 2c 1f 00
	00 00		 mov	 DWORD PTR spisok$[rbp+36], 31
  00080	c7 45 30 1e 00
	00 00		 mov	 DWORD PTR spisok$[rbp+40], 30
  00087	c7 45 34 1f 00
	00 00		 mov	 DWORD PTR spisok$[rbp+44], 31

; 5    : 	int	serial, sum = 0;

  0008e	c7 45 74 00 00
	00 00		 mov	 DWORD PTR sum$[rbp], 0

; 6    : 	for (int i = 0; i < month - 1; i++)

  00095	c7 85 94 00 00
	00 00 00 00 00	 mov	 DWORD PTR i$4[rbp], 0
  0009f	eb 0e		 jmp	 SHORT $LN4@findPoryad
$LN2@findPoryad:
  000a1	8b 85 94 00 00
	00		 mov	 eax, DWORD PTR i$4[rbp]
  000a7	ff c0		 inc	 eax
  000a9	89 85 94 00 00
	00		 mov	 DWORD PTR i$4[rbp], eax
$LN4@findPoryad:
  000af	8b 85 98 01 00
	00		 mov	 eax, DWORD PTR month$[rbp]
  000b5	ff c8		 dec	 eax
  000b7	39 85 94 00 00
	00		 cmp	 DWORD PTR i$4[rbp], eax
  000bd	7d 17		 jge	 SHORT $LN3@findPoryad

; 7    : 	{
; 8    : 		sum += spisok[i];

  000bf	48 63 85 94 00
	00 00		 movsxd	 rax, DWORD PTR i$4[rbp]
  000c6	8b 44 85 08	 mov	 eax, DWORD PTR spisok$[rbp+rax*4]
  000ca	8b 4d 74	 mov	 ecx, DWORD PTR sum$[rbp]
  000cd	03 c8		 add	 ecx, eax
  000cf	8b c1		 mov	 eax, ecx
  000d1	89 45 74	 mov	 DWORD PTR sum$[rbp], eax

; 9    : 	}

  000d4	eb cb		 jmp	 SHORT $LN2@findPoryad
$LN3@findPoryad:

; 10   : 	serial = sum + day;

  000d6	8b 85 90 01 00
	00		 mov	 eax, DWORD PTR day$[rbp]
  000dc	8b 4d 74	 mov	 ecx, DWORD PTR sum$[rbp]
  000df	03 c8		 add	 ecx, eax
  000e1	8b c1		 mov	 eax, ecx
  000e3	89 45 54	 mov	 DWORD PTR serial$[rbp], eax

; 11   : 	return serial;

  000e6	8b 45 54	 mov	 eax, DWORD PTR serial$[rbp]

; 12   : }

  000e9	8b f8		 mov	 edi, eax
  000eb	48 8d 4d e0	 lea	 rcx, QWORD PTR [rbp-32]
  000ef	48 8d 15 00 00
	00 00		 lea	 rdx, OFFSET FLAT:?findPoryad@@YAHHH@Z$rtcFrameData
  000f6	e8 00 00 00 00	 call	 _RTC_CheckStackVars
  000fb	8b c7		 mov	 eax, edi
  000fd	48 8d a5 78 01
	00 00		 lea	 rsp, QWORD PTR [rbp+376]
  00104	5f		 pop	 rdi
  00105	5d		 pop	 rbp
  00106	c3		 ret	 0
?findPoryad@@YAHHH@Z ENDP				; findPoryad
_TEXT	ENDS
; Function compile flags: /Odtp /RTCsu /ZI
; File E:\уник\КПО\lab01\раздельно\lab\lab\lab_findPoryad.cpp
;	COMDAT ?__empty_global_delete@@YAXPEAX_K@Z
_TEXT	SEGMENT
__formal$ = 224
__formal$ = 232
?__empty_global_delete@@YAXPEAX_K@Z PROC		; __empty_global_delete, COMDAT

$LN3:
  00000	48 89 54 24 10	 mov	 QWORD PTR [rsp+16], rdx
  00005	48 89 4c 24 08	 mov	 QWORD PTR [rsp+8], rcx
  0000a	55		 push	 rbp
  0000b	57		 push	 rdi
  0000c	48 81 ec e8 00
	00 00		 sub	 rsp, 232		; 000000e8H
  00013	48 8d 6c 24 20	 lea	 rbp, QWORD PTR [rsp+32]
  00018	48 8d 0d 00 00
	00 00		 lea	 rcx, OFFSET FLAT:__E713FB8F_lab_findPoryad@cpp
  0001f	e8 00 00 00 00	 call	 __CheckForDebuggerJustMyCode
  00024	48 8d a5 c8 00
	00 00		 lea	 rsp, QWORD PTR [rbp+200]
  0002b	5f		 pop	 rdi
  0002c	5d		 pop	 rbp
  0002d	c3		 ret	 0
?__empty_global_delete@@YAXPEAX_K@Z ENDP		; __empty_global_delete
_TEXT	ENDS
; Function compile flags: /Odtp /RTCsu /ZI
; File E:\уник\КПО\lab01\раздельно\lab\lab\lab_findPoryad.cpp
;	COMDAT ?__empty_global_delete@@YAXPEAX@Z
_TEXT	SEGMENT
__formal$ = 224
?__empty_global_delete@@YAXPEAX@Z PROC			; __empty_global_delete, COMDAT

$LN3:
  00000	48 89 4c 24 08	 mov	 QWORD PTR [rsp+8], rcx
  00005	55		 push	 rbp
  00006	57		 push	 rdi
  00007	48 81 ec e8 00
	00 00		 sub	 rsp, 232		; 000000e8H
  0000e	48 8d 6c 24 20	 lea	 rbp, QWORD PTR [rsp+32]
  00013	48 8d 0d 00 00
	00 00		 lea	 rcx, OFFSET FLAT:__E713FB8F_lab_findPoryad@cpp
  0001a	e8 00 00 00 00	 call	 __CheckForDebuggerJustMyCode
  0001f	48 8d a5 c8 00
	00 00		 lea	 rsp, QWORD PTR [rbp+200]
  00026	5f		 pop	 rdi
  00027	5d		 pop	 rbp
  00028	c3		 ret	 0
?__empty_global_delete@@YAXPEAX@Z ENDP			; __empty_global_delete
_TEXT	ENDS
END
